; Function Attrs: mustprogress uwtable
define hidden void @_ZN3smt7context11mk_th_axiomEiN3sat7literalES2_jP9parameter(ptr noundef nonnull align 8 dereferenceable(11616) %this, i32 noundef %tid, i32 %l1.coerce, i32 %l2.coerce, i32 noundef %num_params, ptr noundef %params) local_unnamed_addr #3 align 2 {
entry:
  %ls = alloca [2 x %"class.sat::literal"], align 4
  store i32 %l1.coerce, ptr %ls, align 4
  %arrayinit.element = getelementptr inbounds i8, ptr %ls, i64 4
  store i32 %l2.coerce, ptr %arrayinit.element, align 4
  call void @_ZN3smt7context12mk_th_clauseEijPN3sat7literalEjP9parameterNS_11clause_kindE(ptr noundef nonnull align 8 dereferenceable(11616) %this, i32 noundef %tid, i32 noundef 2, ptr noundef nonnull %ls, i32 noundef %num_params, ptr noundef %params, i32 noundef 1)
  ret void
}